Certificate:
    Data:
        Version: 3 (0x2)
        Serial Number: 39321 (0x9999)
        Signature Algorithm: sha256WithRSAEncryption
        Issuer: C=IL, ST=TLV, L=TelAviv, O=MongoDB, CN=bigid.com
        Validity
            Not Before: Feb 16 09:18:26 2020 GMT
            Not After : Feb 15 09:18:26 2021 GMT
        Subject: C=IL, ST=TLV, O=MongoDB, OU=mongoservers, CN=bigid-mongo-server.bigid.com
        Subject Public Key Info:
            Public Key Algorithm: rsaEncryption
                RSA Public-Key: (2048 bit)
                Modulus:
                    00:b9:63:c2:ab:65:6b:b2:34:be:7f:a3:46:79:5e:
                    a9:01:dd:d0:dc:4c:66:bc:87:dd:3f:aa:e1:5b:68:
                    14:1f:be:64:fe:5a:4c:4c:2b:5d:c9:be:13:d1:36:
                    54:84:fd:e6:fa:10:65:e0:a8:bc:05:db:2d:b2:9a:
                    41:4f:09:d0:9e:05:7d:20:aa:56:d5:88:e0:d3:91:
                    27:14:00:7c:cf:ce:c6:d6:26:7f:e8:5a:26:bc:8e:
                    3a:07:22:72:30:6a:ce:09:f7:f1:60:09:fa:95:03:
                    4d:e6:74:22:ab:66:2e:c6:47:14:38:3c:53:ff:c4:
                    42:78:37:23:01:e2:5a:5c:1a:e5:77:cf:73:e4:0b:
                    b1:31:f7:65:22:ed:8f:c3:21:9b:e9:54:b0:42:77:
                    a0:ca:05:28:e2:c3:93:d2:db:7b:3e:b4:44:65:d3:
                    c4:ac:0b:7e:a1:35:5d:24:6a:e1:33:22:83:99:6e:
                    fa:71:05:a9:03:43:7b:0b:37:00:d8:41:e1:fb:4f:
                    db:75:3f:8d:88:2f:3f:52:38:b6:9e:0e:88:72:51:
                    15:1e:5c:ff:ab:d7:a7:1b:0a:82:2a:7b:17:d8:7b:
                    0a:35:33:3e:6c:79:5b:4c:cc:b2:4b:10:f1:29:56:
                    52:69:26:4d:57:d2:43:5f:c0:4b:f4:5e:26:d2:ab:
                    35:fd
                Exponent: 65537 (0x10001)
        X509v3 extensions:
            X509v3 Basic Constraints:
                CA:FALSE
            Netscape Comment:
                OpenSSL Generated Certificate
            X509v3 Subject Key Identifier:
                2B:5E:2D:C5:7F:EE:6C:F0:33:12:34:AE:D6:67:BD:9F:17:49:86:F4
            X509v3 Authority Key Identifier:
                keyid:1B:11:BD:59:62:92:16:A6:DF:DB:B6:9C:AE:C1:2E:78:2A:C2:AD:D3

    Signature Algorithm: sha256WithRSAEncryption
         b5:aa:03:eb:b9:a3:fc:ea:cd:70:bb:a6:44:43:a3:7a:c1:8b:
         71:0c:80:5f:9d:0f:1e:e8:8e:4b:c3:7d:07:a6:46:36:4a:5c:
         58:92:2c:22:7b:4e:ec:26:ff:16:b9:1c:db:12:72:48:6e:42:
         b4:49:29:2c:05:b5:b5:e8:f1:a9:3a:32:b6:d7:f1:be:37:80:
         a1:d6:56:ba:85:d5:e8:17:72:c0:84:f5:bb:1f:6a:b5:34:da:
         6a:71:d1:85:a5:2a:0f:2f:e6:83:26:56:3e:de:0f:84:c1:46:
         ea:7e:d1:11:20:10:e7:ab:b0:d8:54:dd:fb:9e:d1:61:c9:a1:
         19:e2:0d:b8:b1:0e:5b:b6:11:af:7b:a3:f2:87:7c:ef:e4:52:
         19:cc:0c:f7:5f:52:6e:3f:ad:90:95:54:07:20:49:6d:29:47:
         65:94:79:19:37:f9:58:52:f9:4d:cc:50:77:69:0b:af:64:81:
         d9:9e:f8:a8:40:25:68:24:e9:bb:91:b1:e5:16:82:35:a1:5a:
         42:5c:e5:78:83:f5:c9:3a:69:dd:e0:0c:2e:f5:7a:4c:09:40:
         d3:1b:d7:2d:38:53:8f:5e:55:39:9e:34:b4:5f:b6:d0:10:ef:
         14:9d:23:e3:8f:70:63:29:be:0e:fb:8c:6c:16:9f:31:c1:0e:
         3a:65:c0:d0
-----BEGIN CERTIFICATE-----
MIIDtjCCAp6gAwIBAgIDAJmZMA0GCSqGSIb3DQEBCwUAMFMxCzAJBgNVBAYTAklM
MQwwCgYDVQQIDANUTFYxEDAOBgNVBAcMB1RlbEF2aXYxEDAOBgNVBAoMB01vbmdv
REIxEjAQBgNVBAMMCWJpZ2lkLmNvbTAeFw0yMDAyMTYwOTE4MjZaFw0yMTAyMTUw
OTE4MjZaMGsxCzAJBgNVBAYTAklMMQwwCgYDVQQIDANUTFYxEDAOBgNVBAoMB01v
bmdvREIxFTATBgNVBAsMDG1vbmdvc2VydmVyczElMCMGA1UEAwwcYmlnaWQtbW9u
Z28tc2VydmVyLmJpZ2lkLmNvbTCCASIwDQYJKoZIhvcNAQEBBQADggEPADCCAQoC
ggEBALljwqtla7I0vn+jRnleqQHd0NxMZryH3T+q4VtoFB++ZP5aTEwrXcm+E9E2
VIT95voQZeCovAXbLbKaQU8J0J4FfSCqVtWI4NORJxQAfM/OxtYmf+haJryOOgci
cjBqzgn38WAJ+pUDTeZ0IqtmLsZHFDg8U//EQng3IwHiWlwa5XfPc+QLsTH3ZSLt
j8Mhm+lUsEJ3oMoFKOLDk9Lbez60RGXTxKwLfqE1XSRq4TMig5lu+nEFqQNDews3
ANhB4ftP23U/jYgvP1I4tp4OiHJRFR5c/6vXpxsKgip7F9h7CjUzPmx5W0zMsksQ
8SlWUmkmTVfSQ1/AS/ReJtKrNf0CAwEAAaN7MHkwCQYDVR0TBAIwADAsBglghkgB
hvhCAQ0EHxYdT3BlblNTTCBHZW5lcmF0ZWQgQ2VydGlmaWNhdGUwHQYDVR0OBBYE
FCteLcV/7mzwMxI0rtZnvZ8XSYb0MB8GA1UdIwQYMBaAFBsRvVlikham39u2nK7B
Lngqwq3TMA0GCSqGSIb3DQEBCwUAA4IBAQC1qgPruaP86s1wu6ZEQ6N6wYtxDIBf
nQ8e6I5Lw30HpkY2SlxYkiwie07sJv8WuRzbEnJIbkK0SSksBbW16PGpOjK21/G+
N4Ch1la6hdXoF3LAhPW7H2q1NNpqcdGFpSoPL+aDJlY+3g+EwUbqftERIBDnq7DY
VN37ntFhyaEZ4g24sQ5bthGve6Pyh3zv5FIZzAz3X1JuP62QlVQHIEltKUdllHkZ
N/lYUvlNzFB3aQuvZIHZnvioQCVoJOm7kbHlFoI1oVpCXOV4g/XJOmnd4Awu9XpM
CUDTG9ctOFOPXlU5njS0X7bQEO8UnSPjj3BjKb4O+4xsFp8xwQ46ZcDQ
-----END CERTIFICATE-----
-----BEGIN PRIVATE KEY-----
MIIEvgIBADANBgkqhkiG9w0BAQEFAASCBKgwggSkAgEAAoIBAQC5Y8KrZWuyNL5/
o0Z5XqkB3dDcTGa8h90/quFbaBQfvmT+WkxMK13JvhPRNlSE/eb6EGXgqLwF2y2y
mkFPCdCeBX0gqlbViODTkScUAHzPzsbWJn/oWia8jjoHInIwas4J9/FgCfqVA03m
dCKrZi7GRxQ4PFP/xEJ4NyMB4lpcGuV3z3PkC7Ex92Ui7Y/DIZvpVLBCd6DKBSji
w5PS23s+tERl08SsC36hNV0kauEzIoOZbvpxBakDQ3sLNwDYQeH7T9t1P42ILz9S
OLaeDohyURUeXP+r16cbCoIqexfYewo1Mz5seVtMzLJLEPEpVlJpJk1X0kNfwEv0
XibSqzX9AgMBAAECggEBAJIAdAaBuEA/c6uXzd+14go7Q8rLTLm7kk4a6KIRJJAf
ZPA/8wilupYwYPEKBaQ7RdW4ZlN476L5C1M2UqrJgweAMRwxqnM++jkEfq8s9x69
rTBoX6GApjMnG6IUybNB2gRVxT2qfjMuyAHvgoJT1hCHV/A16r1qNiLw4VwRhLI1
kLewRZCKN3z/98Hx52IcoEpfn/WdstYXJzio0ZrwuPjKZq8nokTYkhi0bV27K44/
Y+cVNYjRUEaGdPCRs1+IFxLDm4B2ogjFCIv8O5sYWAUN68+a8o4cQgGldM1/xyDS
dicRN6QuvHdadUlHLblzBaDbGtP4L/m4qgFtSfqIWkECgYEA5xOzfdMMExhObwrT
lT5YJgCYnzeOXfkv5DqKIv/9eCBiAH2Q7Ray2aqf7xyXWrVwtlsGGgADputTD/Re
439oGHlg6a2ipKdh1/vTEdRQ1xlcRPNGMZ0PzVEE2DP61PX6U+Io6jn546iBFfcY
XwQ6cn3a9s/ymevKk3Mx0PGrKPECgYEAzWKU47SYT42A11Us7x2YJDK/f0rHGCal
W6wjOoNTw0aekoZ7tNEBfiAIIRXgEVgHVMDbXDP3S0x/HCfjdVsijp+OV6SJAz+X
p9eSOJ5zT+qaDQts+p96ui36gHAlmXVcN3rbeSrDb5OORlP6hSgWDSAFM0omx06/
L93GVhF6Pc0CgYEAnYw+JbyeD+rTlzwPdEL0gLyJUozjYUkDkR0kj6Zvn9acWu9B
v5RpTqTZtIKO40av2XUIHPQDiWwKzubzRzLXu1AOdmRvbsm8mTDWAOL8VxuwYEZp
hmwqmPbzUaFnFIm9KjIZaVEsAj8h++Lj1+yfGO6cOwkexDkSfiPdRDNxWlECgYBl
dZilsBY53mZSebI74XvCDgvJnzAhPx4a3jt88VlUszMsoSDFXyaEnuBFL+BD0R+1
/5udvdIhMYXta8sSs1Wr7ShNJWvF3glWEckbDTNbvEIjxYwtdtES3hnMjxoT6AUJ
Jzj6b2SiXts+5MdyNi5Gh5XqE2x6su0BgWY0KGgh1QKBgHp4YekCAArVKnGzg0Al
BcXKWDiu7v2+ZzyeeAfQRu5PeVbYCI5SSkQ53/xfjQZ16Ym5QnplVYLyptcUI2CR
G4HCs0WIkAgYujTwYkL+ghXhoNsB2BF+rBPyGUbyOFZru2BA4PhS2I26uxE96CoR
GCMU7mjrPGhkEBzy7JLAIuI3
-----END PRIVATE KEY-----
